target datalayout = "e-m:e-p270:32:32-p271:32:32-p272:64:64-i64:64-i128:128-f80:128-n8:16:32:64-S128"
target triple = "x86_64-unknown-linux-gnu"

; Function Attrs: mustprogress nounwind uwtable
define linkonce_odr noundef nonnull align 4 dereferenceable(4) ptr @_ZSt3maxIiERKT_S2_S2_(ptr noundef nonnull align 4 dereferenceable(4) %__a, ptr noundef nonnull align 4 dereferenceable(4) %__b) #1 comdat {
entry:
  %retval = alloca ptr, align 8
  %__a.addr = alloca ptr, align 8
  %__b.addr = alloca ptr, align 8
  store ptr %__a, ptr %__a.addr, align 8
  store ptr %__b, ptr %__b.addr, align 8
  %0 = load ptr, ptr %__a.addr, align 8
  %1 = load i32, ptr %0, align 4
  %2 = load ptr, ptr %__b.addr, align 8
  %3 = load i32, ptr %2, align 4
  %cmp = icmp slt i32 %1, %3
  br i1 %cmp, label %if.then, label %if.end

if.then:                                          ; preds = %entry
  %4 = load ptr, ptr %__b.addr, align 8
  store ptr %4, ptr %retval, align 8
  br label %return

if.end:                                           ; preds = %entry
  %5 = load ptr, ptr %__a.addr, align 8
  store ptr %5, ptr %retval, align 8
  br label %return

return:                                           ; preds = %if.end, %if.then
  %6 = load ptr, ptr %retval, align 8
  ret ptr %6
}

; Function Attrs: mustprogress uwtable
define hidden noundef zeroext i1 @_ZN18OpenImageIO_v2_6_03pvt17TextureSystemImpl26wrap_periodic_sharedborderERiii(ptr noundef nonnull align 4 dereferenceable(4) %coord, i32 noundef %origin, i32 noundef %width) #7 align 2 {
entry:
  %a.addr.i = alloca i32, align 4
  %b.addr.i = alloca i32, align 4
  %coord.addr = alloca ptr, align 8
  %origin.addr = alloca i32, align 4
  %width.addr = alloca i32, align 4
  %ref.tmp = alloca i32, align 4
  store ptr %coord, ptr %coord.addr, align 8
  store i32 %origin, ptr %origin.addr, align 4
  store i32 %width, ptr %width.addr, align 4
  store i32 2, ptr %ref.tmp, align 4
  %call = call noundef nonnull align 4 dereferenceable(4) ptr @_ZSt3maxIiERKT_S2_S2_(ptr noundef nonnull align 4 dereferenceable(4) %width.addr, ptr noundef nonnull align 4 dereferenceable(4) %ref.tmp)
  %0 = load i32, ptr %call, align 4
  store i32 %0, ptr %width.addr, align 4
  %1 = load i32, ptr %origin.addr, align 4
  %2 = load ptr, ptr %coord.addr, align 8
  %3 = load i32, ptr %2, align 4
  %sub = sub nsw i32 %3, %1
  store i32 %sub, ptr %2, align 4
  %4 = load ptr, ptr %coord.addr, align 8
  %5 = load i32, ptr %4, align 4
  %6 = load i32, ptr %width.addr, align 4
  %sub1 = sub nsw i32 %6, 1
  store i32 %5, ptr %a.addr.i, align 4
  store i32 %sub1, ptr %b.addr.i, align 4
  %7 = load i32, ptr %b.addr.i, align 4
  %tobool.i = icmp ne i32 %7, 0
  br i1 %tobool.i, label %cond.true.i, label %cond.false.i

cond.true.i:                                      ; preds = %entry
  %8 = load i32, ptr %a.addr.i, align 4
  %9 = load i32, ptr %b.addr.i, align 4
  %rem.i = srem i32 %8, %9
  br label %_ZN18OpenImageIO_v2_6_08safe_modIiEET_S1_S1_.exit

cond.false.i:                                     ; preds = %entry
  br label %_ZN18OpenImageIO_v2_6_08safe_modIiEET_S1_S1_.exit

_ZN18OpenImageIO_v2_6_08safe_modIiEET_S1_S1_.exit: ; preds = %cond.false.i, %cond.true.i
  %cond.i = phi i32 [ %rem.i, %cond.true.i ], [ 0, %cond.false.i ]
  %10 = load ptr, ptr %coord.addr, align 8
  store i32 %cond.i, ptr %10, align 4
  %11 = load ptr, ptr %coord.addr, align 8
  %12 = load i32, ptr %11, align 4
  %cmp = icmp slt i32 %12, 0
  br i1 %cmp, label %if.then, label %if.end

if.then:                                          ; preds = %_ZN18OpenImageIO_v2_6_08safe_modIiEET_S1_S1_.exit
  %13 = load i32, ptr %width.addr, align 4
  %14 = load ptr, ptr %coord.addr, align 8
  %15 = load i32, ptr %14, align 4
  %add = add nsw i32 %15, %13
  store i32 %add, ptr %14, align 4
  br label %if.end

if.end:                                           ; preds = %if.then, %_ZN18OpenImageIO_v2_6_08safe_modIiEET_S1_S1_.exit
  %16 = load i32, ptr %origin.addr, align 4
  %17 = load ptr, ptr %coord.addr, align 8
  %18 = load i32, ptr %17, align 4
  %add3 = add nsw i32 %18, %16
  store i32 %add3, ptr %17, align 4
  ret i1 true
}