; Function Attrs: mustprogress nofree norecurse nosync nounwind willreturn memory(argmem: readwrite) uwtable
define hidden noundef zeroext i1 @_ZN18OpenImageIO_v2_6_03pvt17TextureSystemImpl26wrap_periodic_sharedborderERiii(ptr nocapture noundef nonnull align 4 dereferenceable(4) %coord, i32 noundef %origin, i32 noundef %width) #7 align 2 {
entry:
  %.sroa.speculated = tail call i32 @llvm.smax.i32(i32 %width, i32 2)
  %0 = load i32, ptr %coord, align 4
  %sub = sub nsw i32 %0, %origin
  %sub1 = add nsw i32 %.sroa.speculated, -1
  %rem.i = srem i32 %sub, %sub1
  %cmp = icmp slt i32 %rem.i, 0
  %add = select i1 %cmp, i32 %.sroa.speculated, i32 0
  %spec.select = add nsw i32 %rem.i, %add
  %add3 = add nsw i32 %spec.select, %origin
  store i32 %add3, ptr %coord, align 4
  ret i1 true
}